target datalayout = "e-m:e-p270:32:32-p271:32:32-p272:64:64-i64:64-i128:128-f80:128-n8:16:32:64-S128"
target triple = "x86_64-pc-linux-gnu"

; Function Attrs: nounwind uwtable
define i32 @pmix12_v2_to_v1_datatype(i16 noundef zeroext %0) #0 {
  %2 = alloca i16, align 2
  %3 = alloca i32, align 4
  store i16 %0, ptr %2, align 2, !tbaa !33
  call void @llvm.lifetime.start.p0(i64 4, ptr %3) #13
  %4 = load i16, ptr %2, align 2, !tbaa !33
  %5 = zext i16 %4 to i32
  switch i32 %5, label %14 [
    i32 20, label %6
    i32 44, label %7
    i32 40, label %8
    i32 39, label %9
    i32 23, label %10
    i32 24, label %10
    i32 25, label %10
    i32 26, label %10
    i32 27, label %10
    i32 28, label %10
    i32 29, label %10
    i32 30, label %10
  ]

6:                                                ; preds = %1
  store i32 6, ptr %3, align 4, !tbaa !20
  br label %17

7:                                                ; preds = %1
  store i32 22, ptr %3, align 4, !tbaa !20
  br label %17

8:                                                ; preds = %1
  store i32 6, ptr %3, align 4, !tbaa !20
  br label %17

9:                                                ; preds = %1
  store i32 22, ptr %3, align 4, !tbaa !20
  br label %17

10:                                               ; preds = %1, %1, %1, %1, %1, %1, %1, %1
  %11 = load i16, ptr %2, align 2, !tbaa !33
  %12 = zext i16 %11 to i32
  %13 = add nsw i32 %12, 1
  store i32 %13, ptr %3, align 4, !tbaa !20
  br label %17

14:                                               ; preds = %1
  %15 = load i16, ptr %2, align 2, !tbaa !33
  %16 = zext i16 %15 to i32
  store i32 %16, ptr %3, align 4, !tbaa !20
  br label %17

17:                                               ; preds = %14, %10, %9, %8, %7, %6
  %18 = load i32, ptr %3, align 4, !tbaa !20
  call void @llvm.lifetime.end.p0(i64 4, ptr %3) #13
  ret i32 %18
}