; Function Attrs: mustprogress nofree norecurse nosync nounwind willreturn memory(none) uwtable
define range(i32 0, 65536) i32 @pmix12_v2_to_v1_datatype(i16 noundef zeroext %0) local_unnamed_addr #5 {
  %2 = zext i16 %0 to i32
  switch i16 %0, label %6 [
    i16 20, label %7
    i16 44, label %3
    i16 40, label %7
    i16 39, label %3
    i16 23, label %4
    i16 24, label %4
    i16 25, label %4
    i16 26, label %4
    i16 27, label %4
    i16 28, label %4
    i16 29, label %4
    i16 30, label %4
  ]

3:                                                ; preds = %1, %1
  br label %7

4:                                                ; preds = %1, %1, %1, %1, %1, %1, %1, %1
  %5 = add nuw nsw i32 %2, 1
  br label %7

6:                                                ; preds = %1
  br label %7

7:                                                ; preds = %1, %1, %6, %4, %3
  %.0 = phi i32 [ %2, %6 ], [ %5, %4 ], [ 22, %3 ], [ 6, %1 ], [ 6, %1 ]
  ret i32 %.0
}